; Function Attrs: nofree norecurse nosync nounwind memory(read, inaccessiblemem: none) uwtable
define range(i32 0, 2) i32 @Abc_AigNodeHasComplFanoutEdge(ptr noundef readonly captures(none) %0) local_unnamed_addr #6 {
  %2 = getelementptr i8, ptr %0, i64 44
  %.val = load i32, ptr %2, align 4
  %3 = icmp sgt i32 %.val, 0
  br i1 %3, label %.lr.ph, label %.critedge

.lr.ph:                                           ; preds = %1
  %.val10 = load ptr, ptr %0, align 8
  %4 = getelementptr i8, ptr %0, i64 48
  %.val11 = load ptr, ptr %4, align 8
  %5 = getelementptr i8, ptr %.val10, i64 32
  %.val10.val = load ptr, ptr %5, align 8
  %6 = getelementptr i8, ptr %.val10.val, i64 8
  %.val10.val.val = load ptr, ptr %6, align 8
  %7 = getelementptr inbounds nuw i8, ptr %0, i64 16
  %8 = load i32, ptr %7, align 8
  %wide.trip.count = zext nneg i32 %.val to i64
  br label %10

9:                                                ; preds = %Vec_IntFind.exit.thread
  %indvars.iv.next = add nuw nsw i64 %indvars.iv, 1
  %exitcond.not = icmp eq i64 %indvars.iv.next, %wide.trip.count
  br i1 %exitcond.not, label %.critedge, label %10, !llvm.loop !44

10:                                               ; preds = %.lr.ph, %9
  %indvars.iv = phi i64 [ 0, %.lr.ph ], [ %indvars.iv.next, %9 ]
  %11 = getelementptr inbounds nuw i32, ptr %.val11, i64 %indvars.iv
  %12 = load i32, ptr %11, align 4
  %13 = sext i32 %12 to i64
  %14 = getelementptr inbounds ptr, ptr %.val10.val.val, i64 %13
  %15 = load ptr, ptr %14, align 8
  %16 = getelementptr inbounds nuw i8, ptr %15, i64 28
  %17 = load i32, ptr %16, align 4
  %18 = icmp sgt i32 %17, 0
  br i1 %18, label %.lr.ph.i, label %Vec_IntFind.exit.thread

.lr.ph.i:                                         ; preds = %10
  %19 = getelementptr inbounds nuw i8, ptr %15, i64 32
  %20 = load ptr, ptr %19, align 8
  %wide.trip.count.i = zext nneg i32 %17 to i64
  br label %21

21:                                               ; preds = %25, %.lr.ph.i
  %indvars.iv.i = phi i64 [ 0, %.lr.ph.i ], [ %indvars.iv.next.i, %25 ]
  %22 = getelementptr inbounds nuw i32, ptr %20, i64 %indvars.iv.i
  %23 = load i32, ptr %22, align 4
  %24 = icmp eq i32 %23, %8
  br i1 %24, label %Vec_IntFind.exit, label %25

25:                                               ; preds = %21
  %indvars.iv.next.i = add nuw nsw i64 %indvars.iv.i, 1
  %exitcond.not.i = icmp eq i64 %indvars.iv.next.i, %wide.trip.count.i
  br i1 %exitcond.not.i, label %Vec_IntFind.exit.thread, label %21, !llvm.loop !31

Vec_IntFind.exit:                                 ; preds = %21
  %.not.i = icmp eq i64 %indvars.iv.i, 0
  %spec.select = select i1 %.not.i, i32 10, i32 11
  br label %Vec_IntFind.exit.thread

Vec_IntFind.exit.thread:                          ; preds = %25, %10, %Vec_IntFind.exit
  %26 = phi i32 [ %spec.select, %Vec_IntFind.exit ], [ 11, %10 ], [ 11, %25 ]
  %.in = getelementptr inbounds nuw i8, ptr %15, i64 20
  %27 = load i32, ptr %.in, align 4
  %28 = shl nuw nsw i32 1, %26
  %29 = and i32 %27, %28
  %.not = icmp eq i32 %29, 0
  br i1 %.not, label %9, label %.critedge

.critedge:                                        ; preds = %Vec_IntFind.exit.thread, %9, %1
  %.0 = phi i32 [ 0, %1 ], [ 0, %9 ], [ 1, %Vec_IntFind.exit.thread ]
  ret i32 %.0
}